(dp0
S'page_file_manage'
p1
S'## Manage file\r\n{{=form}}'
p2
sS'tables'
p3
(lp4
S'auth_user'
p5
aS'experiment_unit'
p6
aS'project'
p7
aS'organism'
p8
aS'file'
p9
aS'sample'
p10
aS'agent'
p11
aS'users'
p12
asS'table_organism'
p13
(lp14
S'name'
p15
aS'common name'
p16
asS'name'
p17
S'BNAdmin'
p18
sS'table_experiment_unit'
p19
(lp20
S'name'
p21
aS'bionimbus_id unique'
p22
aS'sample sample'
p23
aS'agent agent'
p24
aS'barcode'
p25
aS'protein'
p26
asS'table_file'
p27
(lp28
S'name'
p29
aS'path'
p30
aS'bionimbus_id'
p31
asS'table_users'
p32
(lp33
S'name'
p34
aS'password'
p35
aS'lastlogin date'
p36
aS'superuser boolean'
p37
asS'page_agent_manage'
p38
S'## Manage agent\r\n{{=form}}'
p39
sS'page_experiment_unit_manage'
p40
S'## Manage experiment_unit\r\n{{=form}}'
p41
sS'page_project_manage'
p42
S'## Manage project\r\n{{=form}}'
p43
sS'page_index'
p44
S'# Welcome to my new app'
p45
sS'table_project'
p46
(lp47
S'name'
p48
aS'description'
p49
aS'organism'
p50
aS'pi'
p51
aS'path'
p52
aS'users'
p53
asS'page_error'
p54
S'# Error: the document does not exist'
p55
sS'table_sample'
p56
(lp57
S'name'
p58
asS'page_sample_manage'
p59
S'## Manage sample\r\n{{=form}}'
p60
sS'page_users_manage'
p61
S'## Manage users\r\n{{=form}}'
p62
sS'params'
p63
(lp64
(S'title'
p65
S'My New App'
p66
tp67
a(S'subtitle'
p68
S'powered by web2py'
p69
tp70
a(S'author'
p71
S'you'
p72
tp73
a(S'author_email'
p74
S'you@example.com'
p75
tp76
a(S'keywords'
p77
S''
p78
tp79
a(S'description'
p80
g78
tp81
a(S'layout_theme'
p82
S'Default'
p83
tp84
a(S'database_uri'
p85
S'postgres://dstn:cisdstn@localhost:5432/bionimbus'
p86
tp87
a(S'security_key'
p88
S'c4b1c26b-f84e-4f77-a851-66054094a416'
p89
tp90
a(S'email_server'
p91
S'localhost'
p92
tp93
a(S'email_sender'
p94
S'you@example.com'
p95
tp96
a(S'email_login'
p97
g78
tp98
a(S'login_method'
p99
S'local'
p100
tp101
a(S'login_config'
p102
g78
tp103
a(S'plugins'
p104
(lp105
tp106
asS'table_auth_user'
p107
(lp108
S'username'
p109
aS'first_name'
p110
aS'last_name'
p111
aS'email'
p112
aS'password'
p113
asS'pages'
p114
(lp115
S'index'
p116
aS'error'
p117
aS'experiment_unit_manage'
p118
aS'project_manage'
p119
aS'organism_manage'
p120
aS'file_manage'
p121
aS'sample_manage'
p122
aS'agent_manage'
p123
aS'users_manage'
p124
asS'page_organism_manage'
p125
S'## Manage organism\r\n{{=form}}'
p126
sS'table_agent'
p127
(lp128
S'name'
p129
as.