(dp1
S'f_year'
p2
(dp3
S'type'
p4
S'integer'
p5
sS'sortable'
p6
I2
sS'sql'
p7
S'INTEGER'
p8
ssS'f_index'
p9
(dp10
g4
g5
sg6
I3
sg7
S'INTEGER'
p11
ssS'id'
p12
(dp13
g4
g12
sg6
I1
sg7
S'SERIAL PRIMARY KEY'
p14
ss.