(dp1
S'f_project'
p2
(dp3
S'sortable'
p4
I4
sS'type'
p5
S'reference t_project'
p6
sS'sql'
p7
S'INTEGER REFERENCES t_project(id) ON DELETE CASCADE'
p8
ssS'f_import_id'
p9
(dp10
g4
I10
sg5
S'integer'
p11
sg7
S'INTEGER'
p12
ssS'f_read_length'
p13
(dp14
S'sortable'
p15
I16
sS'sql'
p16
S'VARCHAR(512)'
p17
sS'length'
p18
I512
sS'notnull'
p19
I00
sS'unique'
p20
I00
sS'type'
p21
S'string'
p22
ssS'f_bionimbus_id'
p23
(dp24
g4
I3
sg5
S'string'
p25
sg7
S'VARCHAR(512)'
p26
ssS'f_treatment'
p27
(dp28
S'sortable'
p29
I9
sS'sql'
p30
S'VARCHAR(512)'
p31
sS'length'
p32
I512
sS'notnull'
p33
I00
sS'unique'
p34
I00
sS'type'
p35
S'string'
p36
ssS'created_on'
p37
(dp38
g4
I12
sg5
S'datetime'
p39
sg7
S'TIMESTAMP'
p40
ssS'f_spreadsheet'
p41
(dp42
S'sortable'
p43
I11
sS'type'
p44
S'integer'
p45
sS'sql'
p46
S'INTEGER'
p47
ssS'f_organism'
p48
(dp49
S'sortable'
p50
I5
sS'sql'
p51
S'INTEGER REFERENCES t_organism (id) ON DELETE CASCADE'
p52
sS'length'
p53
I512
sS'notnull'
p54
I00
sS'unique'
p55
I00
sS'type'
p56
S'reference t_organism'
p57
ssS'id'
p58
(dp59
g4
I1
sg5
S'id'
p60
sg7
S'SERIAL PRIMARY KEY'
p61
ssS'f_capture_size'
p62
(dp63
S'sortable'
p64
I24
sS'sql'
p65
S'VARCHAR(512)'
p66
sS'length'
p67
I512
sS'notnull'
p68
I00
sS'unique'
p69
I00
sS'type'
p70
S'string'
p71
ssS'modified_by'
p72
(dp73
g4
I15
sg5
S'reference auth_user'
p74
sg7
S'INTEGER REFERENCES auth_user(id) ON DELETE CASCADE'
p75
ssS'f_stage'
p76
(dp77
S'sortable'
p78
I7
sS'sql'
p79
S'INTEGER REFERENCES t_stage (id) ON DELETE CASCADE'
p80
sS'length'
p81
I512
sS'notnull'
p82
I00
sS'unique'
p83
I00
sS'type'
p84
S'reference t_stage'
p85
ssS'f_read_type'
p86
(dp87
g15
I19
sg16
S'VARCHAR(512)'
p88
sg18
I512
sg19
I00
sg20
I00
sg21
g22
ssS'created_by'
p89
(dp90
g4
I13
sg5
g74
sg7
S'INTEGER REFERENCES auth_user(id) ON DELETE CASCADE'
p91
ssS'f_reads'
p92
(dp93
g15
I15
sg16
S'VARCHAR(512)'
p94
sg18
I512
sg19
I00
sg20
I00
sg21
g22
ssS'f_subproject'
p95
(dp96
g29
I5
sg30
S'INTEGER REFERENCES t_subproject (id) ON DELETE CASCADE'
p97
sg32
I512
sg33
I00
sg34
I00
sg35
S'reference t_subproject'
p98
ssS'f_prep_preformed_by'
p99
(dp100
g15
I20
sg16
S'VARCHAR(512)'
p101
sg18
I512
sg19
I00
sg20
I00
sg21
g22
ssS'f_name'
p102
(dp103
g4
I2
sg5
g25
sg7
S'VARCHAR(512)'
p104
ssS'is_active'
p105
(dp106
g4
I11
sg5
S'boolean'
p107
sg7
S'CHAR(1)'
p108
ssS'f_desired_multiplexing'
p109
(dp110
g15
I18
sg16
S'VARCHAR(512)'
p111
sg18
I512
sg19
I00
sg20
I00
sg21
g22
ssS'f_lib_prep_protocol'
p112
(dp113
g15
I17
sg16
S'VARCHAR(512)'
p114
sg18
I512
sg19
I00
sg20
I00
sg21
g22
ssS'f_agent'
p115
(dp116
g4
I6
sg5
g25
sg7
S'VARCHAR(512)'
p117
ssS'f_is_public'
p118
(dp119
g4
I9
sg5
g107
sg7
S'CHAR(1)'
p120
ssS'f_capture_protocol'
p121
(dp122
g64
I23
sg65
S'VARCHAR(512)'
p123
sg67
I512
sg68
I00
sg69
I00
sg70
g71
ssS'modified_on'
p124
(dp125
g4
I14
sg5
g39
sg7
S'TIMESTAMP'
p126
ssS'f_experiment'
p127
(dp128
S'sortable'
p129
I10
sS'sql'
p130
S'VARCHAR(512)'
p131
sS'length'
p132
I512
sS'notnull'
p133
I00
sS'unique'
p134
I00
sS'type'
p135
S'string'
p136
ssS'f_sample'
p137
(dp138
g4
I5
sg5
g25
sg7
S'VARCHAR(512)'
p139
ssS'f_barcode'
p140
(dp141
g4
I7
sg5
g25
sg7
S'VARCHAR(512)'
p142
ssS'f_protein'
p143
(dp144
g4
I8
sg5
g25
sg7
S'VARCHAR(512)'
p145
ssS'f_library_type'
p146
(dp147
S'sortable'
p148
I5
sS'sql'
p149
S'INTEGER REFERENCES t_library_type (id) ON DELETE CASCADE'
p150
sS'length'
p151
I512
sS'notnull'
p152
I00
sS'unique'
p153
I00
sS'type'
p154
S'reference t_library_type'
p155
ssS'f_whole_exome_custom_capture'
p156
(dp157
S'length'
p158
I512
sS'unique'
p159
I00
sS'sortable'
p160
I22
sS'sql'
p161
S'VARCHAR(512)'
p162
sS'notnull'
p163
I00
sS'type'
p164
S'string'
p165
ssS'f_desired_minimum_reads'
p166
(dp167
S'sortable'
p168
I21
sS'sql'
p169
S'VARCHAR(512)'
p170
sS'length'
p171
I512
sS'notnull'
p172
I00
sS'unique'
p173
I00
sS'type'
p174
S'string'
p175
ss.