(dp1
S'f_project'
p2
(dp3
S'type'
p4
S'reference t_project'
p5
sS'sortable'
p6
I4
sS'sql'
p7
S'INTEGER REFERENCES t_project(id) ON DELETE CASCADE'
p8
ssS'f_import_id'
p9
(dp10
g4
S'integer'
p11
sg6
I10
sg7
S'INTEGER'
p12
ssS'f_name'
p13
(dp14
g4
S'string'
p15
sg6
I2
sg7
S'VARCHAR(512)'
p16
ssS'is_active'
p17
(dp18
g4
S'boolean'
p19
sg6
I11
sg7
S'CHAR(1)'
p20
ssS'f_bionimbus_id'
p21
(dp22
g4
g15
sg6
I3
sg7
S'VARCHAR(512)'
p23
ssS'created_on'
p24
(dp25
g4
S'datetime'
p26
sg6
I12
sg7
S'TIMESTAMP'
p27
ssS'f_agent'
p28
(dp29
g4
g15
sg6
I6
sg7
S'VARCHAR(512)'
p30
ssS'f_is_public'
p31
(dp32
g4
g19
sg6
I9
sg7
S'CHAR(1)'
p33
ssS'modified_on'
p34
(dp35
g4
g26
sg6
I14
sg7
S'TIMESTAMP'
p36
ssS'f_protein'
p37
(dp38
g4
g15
sg6
I8
sg7
S'VARCHAR(512)'
p39
ssS'id'
p40
(dp41
g4
S'id'
p42
sg6
I1
sg7
S'SERIAL PRIMARY KEY'
p43
ssS'modified_by'
p44
(dp45
g4
S'reference auth_user'
p46
sg6
I15
sg7
S'INTEGER REFERENCES auth_user(id) ON DELETE CASCADE'
p47
ssS'f_barcode'
p48
(dp49
g4
g15
sg6
I7
sg7
S'VARCHAR(512)'
p50
ssS'created_by'
p51
(dp52
g4
g46
sg6
I13
sg7
S'INTEGER REFERENCES auth_user(id) ON DELETE CASCADE'
p53
ssS'f_sample'
p54
(dp55
g4
g15
sg6
I5
sg7
S'VARCHAR(512)'
p56
ssS'f_spreadsheet'
p57
(dp58
S'type'
p59
S'integer'
p60
sS'sortable'
p61
I11
sS'sql'
p62
S'INTEGER'
p63
ss.