(dp1
S'f_target_symbol'
p2
(dp3
S'length'
p4
I512
sS'unique'
p5
I00
sS'sortable'
p6
I30
sS'sql'
p7
S'VARCHAR(512)'
p8
sS'notnull'
p9
I00
sS'type'
p10
S'string'
p11
ssS'f_project'
p12
(dp13
S'type'
p14
S'reference t_project'
p15
sS'sortable'
p16
I4
sS'sql'
p17
S'INTEGER REFERENCES t_project(id) ON DELETE CASCADE'
p18
ssS'f_capture_protocol'
p19
(dp20
g4
I512
sg5
I00
sg6
I24
sg7
S'VARCHAR(512)'
p21
sg9
I00
sg10
g11
ssS'f_import_id'
p22
(dp23
g14
S'integer'
p24
sg16
I10
sg17
S'INTEGER'
p25
ssS'f_name'
p26
(dp27
g14
S'string'
p28
sg16
I2
sg17
S'VARCHAR(512)'
p29
ssS'f_fb_wb_id'
p30
(dp31
g4
I512
sg5
I00
sg6
I32
sg7
S'VARCHAR(512)'
p32
sg9
I00
sg10
g11
ssS'is_active'
p33
(dp34
g14
S'boolean'
p35
sg16
I11
sg17
S'CHAR(1)'
p36
ssS'f_read_length'
p37
(dp38
g4
I512
sg5
I00
sg6
I17
sg7
S'VARCHAR(512)'
p39
sg9
I00
sg10
g11
ssS'f_desired_multiplexing'
p40
(dp41
g4
I512
sg5
I00
sg6
I19
sg7
S'VARCHAR(512)'
p42
sg9
I00
sg10
g11
ssS'f_bionimbus_id'
p43
(dp44
g14
g28
sg16
I3
sg17
S'VARCHAR(512)'
p45
ssS'f_treatment'
p46
(dp47
S'sortable'
p48
I9
sS'sql'
p49
S'VARCHAR(512)'
p50
sS'length'
p51
I512
sS'notnull'
p52
I00
sS'unique'
p53
I00
sS'type'
p54
S'string'
p55
ssS'created_on'
p56
(dp57
g14
S'datetime'
p58
sg16
I12
sg17
S'TIMESTAMP'
p59
ssS'f_agent'
p60
(dp61
g14
g28
sg16
I6
sg17
S'VARCHAR(512)'
p62
ssS'f_is_public'
p63
(dp64
g14
g35
sg16
I9
sg17
S'CHAR(1)'
p65
ssS'f_source'
p66
(dp67
g4
I512
sg5
I00
sg6
I28
sg7
S'VARCHAR(512)'
p68
sg9
I00
sg10
g11
ssS'f_protein'
p69
(dp70
g14
g28
sg16
I8
sg17
S'VARCHAR(512)'
p71
ssS'modified_on'
p72
(dp73
g14
g58
sg16
I14
sg17
S'TIMESTAMP'
p74
ssS'f_strain'
p75
(dp76
g4
I512
sg5
I00
sg6
I26
sg7
S'VARCHAR(512)'
p77
sg9
I00
sg10
g11
ssS'f_organism'
p78
(dp79
S'sortable'
p80
I5
sS'sql'
p81
S'INTEGER REFERENCES t_organism (id) ON DELETE CASCADE'
p82
sS'length'
p83
I512
sS'notnull'
p84
I00
sS'unique'
p85
I00
sS'type'
p86
S'reference t_organism'
p87
ssS'f_tissue'
p88
(dp89
g4
I512
sg5
I00
sg6
I27
sg7
S'VARCHAR(512)'
p90
sg9
I00
sg10
g11
ssS'id'
p91
(dp92
g14
S'id'
p93
sg16
I1
sg17
S'SERIAL PRIMARY KEY'
p94
ssS'f_capture_size'
p95
(dp96
g4
I512
sg5
I00
sg6
I25
sg7
S'VARCHAR(512)'
p97
sg9
I00
sg10
g11
ssS'f_experiment'
p98
(dp99
g4
I512
sg5
I00
sg6
I11
sg7
S'VARCHAR(512)'
p100
sg9
I00
sg10
g11
ssS'f_lib_prep_protocol'
p101
(dp102
g4
I512
sg5
I00
sg6
I18
sg7
S'VARCHAR(512)'
p103
sg9
I00
sg10
g11
ssS'f_desired_minimum_reads'
p104
(dp105
g4
I512
sg5
I00
sg6
I22
sg7
S'VARCHAR(512)'
p106
sg9
I00
sg10
g11
ssS'modified_by'
p107
(dp108
g14
S'reference auth_user'
p109
sg16
I15
sg17
S'INTEGER REFERENCES auth_user(id) ON DELETE CASCADE'
p110
ssS'f_stage'
p111
(dp112
S'sortable'
p113
I7
sS'sql'
p114
S'INTEGER REFERENCES t_stage (id) ON DELETE CASCADE'
p115
sS'length'
p116
I512
sS'notnull'
p117
I00
sS'unique'
p118
I00
sS'type'
p119
S'reference t_stage'
p120
ssS'f_barcode'
p121
(dp122
g14
g28
sg16
I7
sg17
S'VARCHAR(512)'
p123
ssS'f_read_type'
p124
(dp125
g4
I512
sg5
I00
sg6
I20
sg7
S'VARCHAR(512)'
p126
sg9
I00
sg10
g11
ssS'f_target_id'
p127
(dp128
g4
I512
sg5
I00
sg6
I31
sg7
S'VARCHAR(512)'
p129
sg9
I00
sg10
g11
ssS'created_by'
p130
(dp131
g14
g109
sg16
I13
sg17
S'INTEGER REFERENCES auth_user(id) ON DELETE CASCADE'
p132
ssS'f_sample'
p133
(dp134
g14
g28
sg16
I5
sg17
S'VARCHAR(512)'
p135
ssS'f_type'
p136
(dp137
g4
I512
sg5
I00
sg6
I2
sg7
S'VARCHAR(512)'
p138
sg9
I00
sg10
g11
ssS'f_whole_exome_custom_capture'
p139
(dp140
g4
I512
sg5
I00
sg6
I23
sg7
S'VARCHAR(512)'
p141
sg9
I00
sg10
g11
ssS'f_subproject'
p142
(dp143
g48
I5
sg49
S'INTEGER REFERENCES t_subproject (id) ON DELETE CASCADE'
p144
sg51
I512
sg52
I00
sg53
I00
sg54
S'reference t_subproject'
p145
ssS'f_replicate'
p146
(dp147
g4
I512
sg5
I00
sg6
I29
sg7
S'VARCHAR(512)'
p148
sg9
I00
sg10
g11
ssS'f_spreadsheet'
p149
(dp150
S'type'
p151
S'integer'
p152
sS'sortable'
p153
I11
sS'sql'
p154
S'INTEGER'
p155
ssS'f_library_type'
p156
(dp157
g4
I512
sg5
I00
sg6
I6
sg7
S'INTEGER REFERENCES t_library_type (id) ON DELETE CASCADE'
p158
sg9
I00
sg10
S'reference t_library_type'
p159
ssS'f_reads'
p160
(dp161
g4
I512
sg5
I00
sg6
I16
sg7
S'VARCHAR(512)'
p162
sg9
I00
sg10
g11
ssS'f_prep_preformed_by'
p163
(dp164
g4
I512
sg5
I00
sg6
I21
sg7
S'VARCHAR(512)'
p165
sg9
I00
sg10
g11
ss.