(dp1
S'f_sequence'
p2
(dp3
S'type'
p4
S'string'
p5
sS'sortable'
p6
I3
sS'sql'
p7
S'VARCHAR(512) UNIQUE'
p8
ssS'f_name'
p9
(dp10
g4
g5
sg6
I2
sg7
S'VARCHAR(512) UNIQUE'
p11
ssS'id'
p12
(dp13
g4
g12
sg6
I1
sg7
S'SERIAL PRIMARY KEY'
p14
ss.