(dp1
S'f_project'
p2
(dp3
S'sortable'
p4
I4
sS'type'
p5
S'reference t_project'
p6
sS'sql'
p7
S'INTEGER REFERENCES t_project(id) ON DELETE CASCADE'
p8
ssS'f_import_id'
p9
(dp10
g4
I10
sg5
S'integer'
p11
sg7
S'INTEGER'
p12
ssS'f_name'
p13
(dp14
g4
I2
sg5
S'string'
p15
sg7
S'VARCHAR(512)'
p16
ssS'is_active'
p17
(dp18
g4
I11
sg5
S'boolean'
p19
sg7
S'CHAR(1)'
p20
ssS'f_bionimbus_id'
p21
(dp22
g4
I3
sg5
g15
sg7
S'VARCHAR(512)'
p23
ssS'f_treatment'
p24
(dp25
S'sortable'
p26
I9
sS'sql'
p27
S'VARCHAR(512)'
p28
sS'length'
p29
I512
sS'notnull'
p30
I00
sS'unique'
p31
I00
sS'type'
p32
S'string'
p33
ssS'created_on'
p34
(dp35
g4
I12
sg5
S'datetime'
p36
sg7
S'TIMESTAMP'
p37
ssS'f_agent'
p38
(dp39
g4
I6
sg5
g15
sg7
S'VARCHAR(512)'
p40
ssS'f_spreadsheet'
p41
(dp42
S'sortable'
p43
I11
sS'type'
p44
S'integer'
p45
sS'sql'
p46
S'INTEGER'
p47
ssS'f_protein'
p48
(dp49
g4
I8
sg5
g15
sg7
S'VARCHAR(512)'
p50
ssS'modified_on'
p51
(dp52
g4
I14
sg5
g36
sg7
S'TIMESTAMP'
p53
ssS'f_organism'
p54
(dp55
S'sortable'
p56
I5
sS'sql'
p57
S'INTEGER REFERENCES t_organism (id) ON DELETE CASCADE'
p58
sS'length'
p59
I512
sS'notnull'
p60
I00
sS'unique'
p61
I00
sS'type'
p62
S'reference t_organism'
p63
ssS'id'
p64
(dp65
g4
I1
sg5
S'id'
p66
sg7
S'SERIAL PRIMARY KEY'
p67
ssS'modified_by'
p68
(dp69
g4
I15
sg5
S'reference auth_user'
p70
sg7
S'INTEGER REFERENCES auth_user(id) ON DELETE CASCADE'
p71
ssS'f_stage'
p72
(dp73
S'length'
p74
I512
sS'unique'
p75
I00
sS'sortable'
p76
I7
sS'sql'
p77
S'INTEGER REFERENCES t_stage (id) ON DELETE CASCADE'
p78
sS'notnull'
p79
I00
sS'type'
p80
S'reference t_stage'
p81
ssS'f_barcode'
p82
(dp83
g4
I7
sg5
g15
sg7
S'VARCHAR(512)'
p84
ssS'created_by'
p85
(dp86
g4
I13
sg5
g70
sg7
S'INTEGER REFERENCES auth_user(id) ON DELETE CASCADE'
p87
ssS'f_sample'
p88
(dp89
g4
I5
sg5
g15
sg7
S'VARCHAR(512)'
p90
ssS'f_is_public'
p91
(dp92
g4
I9
sg5
g19
sg7
S'CHAR(1)'
p93
ssS'f_subproject'
p94
(dp95
g26
I5
sg27
S'INTEGER REFERENCES t_subproject (id) ON DELETE CASCADE'
p96
sg29
I512
sg30
I00
sg31
I00
sg32
S'reference t_subproject'
p97
ss.