(dp1
S'f_project'
p2
(dp3
S'type'
p4
S'reference t_project'
p5
sS'sortable'
p6
I5
sS'sql'
p7
S'INTEGER REFERENCES t_project(id) ON DELETE CASCADE'
p8
ssS'f_barcode'
p9
(dp10
g4
S'string'
p11
sg6
I8
sg7
S'VARCHAR(512)'
p12
ssS'current_record'
p13
(dp14
g4
S'reference t_experiment_unit'
p15
sg6
I3
sg7
S'INTEGER REFERENCES t_experiment_unit(id) ON DELETE CASCADE'
p16
ssS'f_name'
p17
(dp18
g4
g11
sg6
I2
sg7
S'VARCHAR(512)'
p19
ssS'f_sample'
p20
(dp21
g4
g11
sg6
I6
sg7
S'VARCHAR(512)'
p22
ssS'f_agent'
p23
(dp24
g4
g11
sg6
I7
sg7
S'VARCHAR(512)'
p25
ssS'f_is_public'
p26
(dp27
g4
S'boolean'
p28
sg6
I10
sg7
S'CHAR(1)'
p29
ssS'f_protein'
p30
(dp31
g4
g11
sg6
I9
sg7
S'VARCHAR(512)'
p32
ssS'f_bionimbus_id'
p33
(dp34
g4
g11
sg6
I4
sg7
S'VARCHAR(512)'
p35
ssS'id'
p36
(dp37
g4
g36
sg6
I1
sg7
S'SERIAL PRIMARY KEY'
p38
ss.