(dp1
S'f_target_symbol'
p2
(dp3
S'sortable'
p4
I29
sS'sql'
p5
S'VARCHAR(512)'
p6
sS'length'
p7
I512
sS'notnull'
p8
I00
sS'unique'
p9
I00
sS'type'
p10
S'string'
p11
ssS'f_project'
p12
(dp13
S'sortable'
p14
I4
sS'type'
p15
S'reference t_project'
p16
sS'sql'
p17
S'INTEGER REFERENCES t_project(id) ON DELETE CASCADE'
p18
ssS'f_import_id'
p19
(dp20
g14
I10
sg15
S'integer'
p21
sg17
S'INTEGER'
p22
ssS'f_read_length'
p23
(dp24
S'sortable'
p25
I16
sS'sql'
p26
S'VARCHAR(512)'
p27
sS'length'
p28
I512
sS'notnull'
p29
I00
sS'unique'
p30
I00
sS'type'
p31
S'string'
p32
ssS'f_bionimbus_id'
p33
(dp34
g14
I3
sg15
S'string'
p35
sg17
S'VARCHAR(512)'
p36
ssS'f_treatment'
p37
(dp38
S'sortable'
p39
I9
sS'sql'
p40
S'VARCHAR(512)'
p41
sS'length'
p42
I512
sS'notnull'
p43
I00
sS'unique'
p44
I00
sS'type'
p45
S'string'
p46
ssS'created_on'
p47
(dp48
g14
I12
sg15
S'datetime'
p49
sg17
S'TIMESTAMP'
p50
ssS'f_type'
p51
(dp52
S'length'
p53
I512
sS'unique'
p54
I00
sS'sortable'
p55
I2
sS'sql'
p56
S'VARCHAR(512)'
p57
sS'notnull'
p58
I00
sS'type'
p59
S'string'
p60
ssS'f_spreadsheet'
p61
(dp62
S'sortable'
p63
I11
sS'type'
p64
S'integer'
p65
sS'sql'
p66
S'INTEGER'
p67
ssS'f_source'
p68
(dp69
g4
I27
sg5
S'VARCHAR(512)'
p70
sg7
I512
sg8
I00
sg9
I00
sg10
g11
ssS'f_fb_wb_id'
p71
(dp72
g4
I31
sg5
S'VARCHAR(512)'
p73
sg7
I512
sg8
I00
sg9
I00
sg10
g11
ssS'f_strain'
p74
(dp75
g4
I25
sg5
S'VARCHAR(512)'
p76
sg7
I512
sg8
I00
sg9
I00
sg10
g11
ssS'f_organism'
p77
(dp78
S'sortable'
p79
I5
sS'sql'
p80
S'INTEGER REFERENCES t_organism (id) ON DELETE CASCADE'
p81
sS'length'
p82
I512
sS'notnull'
p83
I00
sS'unique'
p84
I00
sS'type'
p85
S'reference t_organism'
p86
ssS'id'
p87
(dp88
g14
I1
sg15
S'id'
p89
sg17
S'SERIAL PRIMARY KEY'
p90
ssS'f_capture_size'
p91
(dp92
S'sortable'
p93
I24
sS'sql'
p94
S'VARCHAR(512)'
p95
sS'length'
p96
I512
sS'notnull'
p97
I00
sS'unique'
p98
I00
sS'type'
p99
S'string'
p100
ssS'modified_by'
p101
(dp102
g14
I15
sg15
S'reference auth_user'
p103
sg17
S'INTEGER REFERENCES auth_user(id) ON DELETE CASCADE'
p104
ssS'f_stage'
p105
(dp106
S'sortable'
p107
I7
sS'sql'
p108
S'INTEGER REFERENCES t_stage (id) ON DELETE CASCADE'
p109
sS'length'
p110
I512
sS'notnull'
p111
I00
sS'unique'
p112
I00
sS'type'
p113
S'reference t_stage'
p114
ssS'f_read_type'
p115
(dp116
g25
I19
sg26
S'VARCHAR(512)'
p117
sg28
I512
sg29
I00
sg30
I00
sg31
g32
ssS'f_target_id'
p118
(dp119
g4
I30
sg5
S'VARCHAR(512)'
p120
sg7
I512
sg8
I00
sg9
I00
sg10
g11
ssS'created_by'
p121
(dp122
g14
I13
sg15
g103
sg17
S'INTEGER REFERENCES auth_user(id) ON DELETE CASCADE'
p123
ssS'f_reads'
p124
(dp125
g25
I15
sg26
S'VARCHAR(512)'
p126
sg28
I512
sg29
I00
sg30
I00
sg31
g32
ssS'f_subproject'
p127
(dp128
g39
I5
sg40
S'INTEGER REFERENCES t_subproject (id) ON DELETE CASCADE'
p129
sg42
I512
sg43
I00
sg44
I00
sg45
S'reference t_subproject'
p130
ssS'f_name'
p131
(dp132
g14
I2
sg15
g35
sg17
S'VARCHAR(512)'
p133
ssS'f_prep_preformed_by'
p134
(dp135
g25
I20
sg26
S'VARCHAR(512)'
p136
sg28
I512
sg29
I00
sg30
I00
sg31
g32
ssS'is_active'
p137
(dp138
g14
I11
sg15
S'boolean'
p139
sg17
S'CHAR(1)'
p140
ssS'f_desired_multiplexing'
p141
(dp142
g25
I18
sg26
S'VARCHAR(512)'
p143
sg28
I512
sg29
I00
sg30
I00
sg31
g32
ssS'f_lib_prep_protocol'
p144
(dp145
g25
I17
sg26
S'VARCHAR(512)'
p146
sg28
I512
sg29
I00
sg30
I00
sg31
g32
ssS'f_agent'
p147
(dp148
g14
I6
sg15
g35
sg17
S'VARCHAR(512)'
p149
ssS'f_is_public'
p150
(dp151
g14
I9
sg15
g139
sg17
S'CHAR(1)'
p152
ssS'f_capture_protocol'
p153
(dp154
g93
I23
sg94
S'VARCHAR(512)'
p155
sg96
I512
sg97
I00
sg98
I00
sg99
g100
ssS'modified_on'
p156
(dp157
g14
I14
sg15
g49
sg17
S'TIMESTAMP'
p158
ssS'f_tissue'
p159
(dp160
g4
I26
sg5
S'VARCHAR(512)'
p161
sg7
I512
sg8
I00
sg9
I00
sg10
g11
ssS'f_experiment'
p162
(dp163
S'sortable'
p164
I10
sS'sql'
p165
S'VARCHAR(512)'
p166
sS'length'
p167
I512
sS'notnull'
p168
I00
sS'unique'
p169
I00
sS'type'
p170
S'string'
p171
ssS'f_sample'
p172
(dp173
g14
I5
sg15
g35
sg17
S'VARCHAR(512)'
p174
ssS'f_barcode'
p175
(dp176
g14
I7
sg15
g35
sg17
S'VARCHAR(512)'
p177
ssS'f_replicate'
p178
(dp179
g4
I28
sg5
S'VARCHAR(512)'
p180
sg7
I512
sg8
I00
sg9
I00
sg10
g11
ssS'f_protein'
p181
(dp182
g14
I8
sg15
g35
sg17
S'VARCHAR(512)'
p183
ssS'f_library_type'
p184
(dp185
S'sortable'
p186
I5
sS'sql'
p187
S'INTEGER REFERENCES t_library_type (id) ON DELETE CASCADE'
p188
sS'length'
p189
I512
sS'notnull'
p190
I00
sS'unique'
p191
I00
sS'type'
p192
S'reference t_library_type'
p193
ssS'f_whole_exome_custom_capture'
p194
(dp195
S'sortable'
p196
I22
sS'sql'
p197
S'VARCHAR(512)'
p198
sS'length'
p199
I512
sS'notnull'
p200
I00
sS'unique'
p201
I00
sS'type'
p202
S'string'
p203
ssS'f_desired_minimum_reads'
p204
(dp205
S'sortable'
p206
I21
sS'sql'
p207
S'VARCHAR(512)'
p208
sS'length'
p209
I512
sS'notnull'
p210
I00
sS'unique'
p211
I00
sS'type'
p212
S'string'
p213
ss.