(dp1
S'f_value'
p2
(dp3
S'type'
p4
S'string'
p5
sS'sortable'
p6
I4
sS'sql'
p7
S'VARCHAR(512)'
p8
ssS'f_metadata_key'
p9
(dp10
g4
g5
sg6
I3
sg7
S'VARCHAR(512)'
p11
ssS'id'
p12
(dp13
g4
g12
sg6
I1
sg7
S'SERIAL PRIMARY KEY'
p14
ssS'f_key'
p15
(dp16
g4
S'reference t_keys'
p17
sg6
I2
sg7
S'INTEGER REFERENCES t_keys(id) ON DELETE CASCADE'
p18
ss.